target datalayout = "e-m:e-p270:32:32-p271:32:32-p272:64:64-i64:64-i128:128-f80:128-n8:16:32:64-S128"
target triple = "x86_64-pc-linux-gnu"

%struct.H5VL_connector_prop_t = type { ptr, ptr }
%struct.H5CX_node_t = type { %struct.H5CX_t, ptr }
%struct.H5CX_t = type { i64, ptr, i64, ptr, i64, ptr, i64, ptr, i64, ptr, i64, ptr, i64, i32, i64, i8, ptr, i8, ptr, i8, i32, i8, [3 x double], i8, i64, i8, i32, i8, %struct.H5Z_cb_t, i8, ptr, i8, %struct.H5T_vlen_alloc_info_t, i8, %struct.H5T_conv_cb_t, i8, i32, i8, i8, i8, i32, i8, i8, i32, i8, i8, i32, i8, i32, i8, i64, i8, i8, i8, i8, i8, ptr, i8, ptr, i8, i32, i8, i32, i8, %struct.H5VL_connector_prop_t, i8, ptr, i8 }
%struct.H5Z_cb_t = type { ptr, ptr }
%struct.H5T_vlen_alloc_info_t = type { ptr, ptr, ptr, ptr }
%struct.H5T_conv_cb_t = type { ptr, ptr }

@H5P_CLS_FILE_ACCESS_ID_g = external global i64, align 8
@H5P_init_g = external global i8, align 1
@H5_libterm_g = external global i8, align 1
@.str.2 = private unnamed_addr constant [101 x i8] c"generated/home/dtcxzyw/WorkSpace/Projects/compilers/llvm-opt-benchmark/bench/hdf5/hdf5/src/H5Pfapl.c\00", align 1
@H5E_BADID_g = external global i64, align 8
@H5E_CANTSET_g = external global i64, align 8
@H5_libinit_g = external global i8, align 1
@H5E_FUNC_g = external global i64, align 8
@H5E_CANTINIT_g = external global i64, align 8
@.str.15 = private unnamed_addr constant [30 x i8] c"library initialization failed\00", align 1
@.str.16 = private unnamed_addr constant [32 x i8] c"interface initialization failed\00", align 1
@.str.17 = private unnamed_addr constant [22 x i8] c"can't set API context\00", align 1
@H5E_ARGS_g = external global i64, align 8
@H5E_BADVALUE_g = external global i64, align 8
@H5E_ID_g = external global i64, align 8
@.str.19 = private unnamed_addr constant [25 x i8] c"can't find object for ID\00", align 1
@__func__.H5Pget_driver_config_str = private unnamed_addr constant [25 x i8] c"H5Pget_driver_config_str\00", align 1
@.str.40 = private unnamed_addr constant [50 x i8] c"config_buf cannot be NULL if buf_size is non-zero\00", align 1

; Function Attrs: nounwind uwtable
define i64 @H5Pget_driver_config_str(i64 noundef %0, ptr noundef %1, i64 noundef %2) #0 {
  %4 = alloca i64, align 8
  %5 = alloca ptr, align 8
  %6 = alloca i64, align 8
  %7 = alloca ptr, align 8
  %8 = alloca ptr, align 8
  %9 = alloca i64, align 8
  %10 = alloca %struct.H5CX_node_t, align 8
  %11 = alloca i8, align 1
  %12 = alloca i8, align 1
  %13 = alloca i64, align 8
  store i64 %0, ptr %4, align 8, !tbaa !8
  store ptr %1, ptr %5, align 8, !tbaa !26
  store i64 %2, ptr %6, align 8, !tbaa !8
  call void @llvm.lifetime.start.p0(i64 8, ptr %7) #10
  call void @llvm.lifetime.start.p0(i64 8, ptr %8) #10
  store ptr null, ptr %8, align 8, !tbaa !26
  call void @llvm.lifetime.start.p0(i64 8, ptr %9) #10
  store i64 -1, ptr %9, align 8, !tbaa !8
  call void @llvm.lifetime.start.p0(i64 480, ptr %10) #10
  call void @llvm.memset.p0.i64(ptr align 8 %10, i8 0, i64 480, i1 false)
  call void @llvm.lifetime.start.p0(i64 1, ptr %11) #10
  store i8 0, ptr %11, align 1, !tbaa !22
  call void @llvm.lifetime.start.p0(i64 1, ptr %12) #10
  store i8 0, ptr %12, align 1, !tbaa !22
  br label %14

14:                                               ; preds = %3
  %15 = load i8, ptr @H5_libinit_g, align 1, !tbaa !22, !range !24, !noundef !25
  %16 = trunc i8 %15 to i1
  br i1 %16, label %21, label %17

17:                                               ; preds = %14
  %18 = load i8, ptr @H5_libterm_g, align 1, !tbaa !22, !range !24, !noundef !25
  %19 = trunc i8 %18 to i1
  %20 = xor i1 %19, true
  br label %21

21:                                               ; preds = %17, %14
  %22 = phi i1 [ false, %14 ], [ %20, %17 ]
  %23 = xor i1 %22, true
  %24 = xor i1 %23, true
  %25 = zext i1 %24 to i32
  %26 = sext i32 %25 to i64
  %27 = call i64 @llvm.expect.i64(i64 %26, i64 0)
  %28 = icmp ne i64 %27, 0
  br i1 %28, label %29, label %58

29:                                               ; preds = %21
  %30 = call i32 @H5_init_library()
  %31 = icmp slt i32 %30, 0
  %32 = xor i1 %31, true
  %33 = xor i1 %32, true
  %34 = zext i1 %33 to i32
  %35 = sext i32 %34 to i64
  %36 = call i64 @llvm.expect.i64(i64 %35, i64 0)
  %37 = icmp ne i64 %36, 0
  br i1 %37, label %38, label %57

38:                                               ; preds = %29
  br label %39

39:                                               ; preds = %38
  br label %40

40:                                               ; preds = %39
  br label %41

41:                                               ; preds = %40
  %42 = load i64, ptr @H5E_FUNC_g, align 8, !tbaa !8
  %43 = load i64, ptr @H5E_CANTINIT_g, align 8, !tbaa !8
  %44 = call i32 (ptr, ptr, i32, i64, i64, ptr, ...) @H5E_printf_stack(ptr noundef @.str.2, ptr noundef @__func__.H5Pget_driver_config_str, i32 noundef 1610, i64 noundef %42, i64 noundef %43, ptr noundef @.str.15)
  br label %45

45:                                               ; preds = %41
  br label %46

46:                                               ; preds = %45
  store i8 1, ptr %12, align 1, !tbaa !22
  %47 = load i8, ptr %12, align 1, !tbaa !22, !range !24, !noundef !25
  %48 = trunc i8 %47 to i1
  %49 = zext i1 %48 to i8
  store i8 %49, ptr %12, align 1, !tbaa !22
  br label %50

50:                                               ; preds = %46
  br label %51

51:                                               ; preds = %50
  br label %52

52:                                               ; preds = %51
  store i64 -1, ptr %9, align 8, !tbaa !8
  br label %207

53:                                               ; No predecessors!
  br label %54

54:                                               ; preds = %53
  br label %55

55:                                               ; preds = %54
  br label %56

56:                                               ; preds = %55
  br label %57

57:                                               ; preds = %56, %29
  br label %58

58:                                               ; preds = %57, %21
  %59 = load i8, ptr @H5P_init_g, align 1, !tbaa !22, !range !24, !noundef !25
  %60 = trunc i8 %59 to i1
  br i1 %60, label %65, label %61

61:                                               ; preds = %58
  %62 = load i8, ptr @H5_libterm_g, align 1, !tbaa !22, !range !24, !noundef !25
  %63 = trunc i8 %62 to i1
  %64 = xor i1 %63, true
  br label %65

65:                                               ; preds = %61, %58
  %66 = phi i1 [ false, %58 ], [ %64, %61 ]
  %67 = xor i1 %66, true
  %68 = xor i1 %67, true
  %69 = zext i1 %68 to i32
  %70 = sext i32 %69 to i64
  %71 = call i64 @llvm.expect.i64(i64 %70, i64 0)
  %72 = icmp ne i64 %71, 0
  br i1 %72, label %73, label %96

73:                                               ; preds = %65
  store i8 1, ptr @H5P_init_g, align 1, !tbaa !22
  %74 = call i32 @H5P__init_package()
  %75 = icmp slt i32 %74, 0
  br i1 %75, label %76, label %95

76:                                               ; preds = %73
  store i8 0, ptr @H5P_init_g, align 1, !tbaa !22
  br label %77

77:                                               ; preds = %76
  br label %78

78:                                               ; preds = %77
  br label %79

79:                                               ; preds = %78
  %80 = load i64, ptr @H5E_FUNC_g, align 8, !tbaa !8
  %81 = load i64, ptr @H5E_CANTINIT_g, align 8, !tbaa !8
  %82 = call i32 (ptr, ptr, i32, i64, i64, ptr, ...) @H5E_printf_stack(ptr noundef @.str.2, ptr noundef @__func__.H5Pget_driver_config_str, i32 noundef 1610, i64 noundef %80, i64 noundef %81, ptr noundef @.str.16)
  br label %83

83:                                               ; preds = %79
  br label %84

84:                                               ; preds = %83
  store i8 1, ptr %12, align 1, !tbaa !22
  %85 = load i8, ptr %12, align 1, !tbaa !22, !range !24, !noundef !25
  %86 = trunc i8 %85 to i1
  %87 = zext i1 %86 to i8
  store i8 %87, ptr %12, align 1, !tbaa !22
  br label %88

88:                                               ; preds = %84
  br label %89

89:                                               ; preds = %88
  br label %90

90:                                               ; preds = %89
  store i64 -1, ptr %9, align 8, !tbaa !8
  br label %207

91:                                               ; No predecessors!
  br label %92

92:                                               ; preds = %91
  br label %93

93:                                               ; preds = %92
  br label %94

94:                                               ; preds = %93
  br label %95

95:                                               ; preds = %94, %73
  br label %96

96:                                               ; preds = %95, %65
  br label %97

97:                                               ; preds = %96
  br label %98

98:                                               ; preds = %97
  br label %99

99:                                               ; preds = %98
  %100 = call i32 @H5CX_push(ptr noundef %10)
  %101 = icmp slt i32 %100, 0
  %102 = xor i1 %101, true
  %103 = xor i1 %102, true
  %104 = zext i1 %103 to i32
  %105 = sext i32 %104 to i64
  %106 = call i64 @llvm.expect.i64(i64 %105, i64 0)
  %107 = icmp ne i64 %106, 0
  br i1 %107, label %108, label %127

108:                                              ; preds = %99
  br label %109

109:                                              ; preds = %108
  br label %110

110:                                              ; preds = %109
  br label %111

111:                                              ; preds = %110
  %112 = load i64, ptr @H5E_FUNC_g, align 8, !tbaa !8
  %113 = load i64, ptr @H5E_CANTSET_g, align 8, !tbaa !8
  %114 = call i32 (ptr, ptr, i32, i64, i64, ptr, ...) @H5E_printf_stack(ptr noundef @.str.2, ptr noundef @__func__.H5Pget_driver_config_str, i32 noundef 1610, i64 noundef %112, i64 noundef %113, ptr noundef @.str.17)
  br label %115

115:                                              ; preds = %111
  br label %116

116:                                              ; preds = %115
  store i8 1, ptr %12, align 1, !tbaa !22
  %117 = load i8, ptr %12, align 1, !tbaa !22, !range !24, !noundef !25
  %118 = trunc i8 %117 to i1
  %119 = zext i1 %118 to i8
  store i8 %119, ptr %12, align 1, !tbaa !22
  br label %120

120:                                              ; preds = %116
  br label %121

121:                                              ; preds = %120
  br label %122

122:                                              ; preds = %121
  store i64 -1, ptr %9, align 8, !tbaa !8
  br label %207

123:                                              ; No predecessors!
  br label %124

124:                                              ; preds = %123
  br label %125

125:                                              ; preds = %124
  br label %126

126:                                              ; preds = %125
  br label %128

127:                                              ; preds = %99
  store i8 1, ptr %11, align 1, !tbaa !22
  br label %128

128:                                              ; preds = %127, %126
  br label %129

129:                                              ; preds = %128
  br label %130

130:                                              ; preds = %129
  %131 = call i32 @H5E_clear_stack()
  %132 = load ptr, ptr %5, align 8, !tbaa !26
  %133 = icmp ne ptr %132, null
  br i1 %133, label %156, label %134

134:                                              ; preds = %130
  %135 = load i64, ptr %6, align 8, !tbaa !8
  %136 = icmp ne i64 %135, 0
  br i1 %136, label %137, label %156

137:                                              ; preds = %134
  br label %138

138:                                              ; preds = %137
  br label %139

139:                                              ; preds = %138
  br label %140

140:                                              ; preds = %139
  %141 = load i64, ptr @H5E_ARGS_g, align 8, !tbaa !8
  %142 = load i64, ptr @H5E_BADVALUE_g, align 8, !tbaa !8
  %143 = call i32 (ptr, ptr, i32, i64, i64, ptr, ...) @H5E_printf_stack(ptr noundef @.str.2, ptr noundef @__func__.H5Pget_driver_config_str, i32 noundef 1614, i64 noundef %141, i64 noundef %142, ptr noundef @.str.40)
  br label %144

144:                                              ; preds = %140
  br label %145

145:                                              ; preds = %144
  store i8 1, ptr %12, align 1, !tbaa !22
  %146 = load i8, ptr %12, align 1, !tbaa !22, !range !24, !noundef !25
  %147 = trunc i8 %146 to i1
  %148 = zext i1 %147 to i8
  store i8 %148, ptr %12, align 1, !tbaa !22
  br label %149

149:                                              ; preds = %145
  br label %150

150:                                              ; preds = %149
  br label %151

151:                                              ; preds = %150
  store i64 -1, ptr %9, align 8, !tbaa !8
  br label %207

152:                                              ; No predecessors!
  br label %153

153:                                              ; preds = %152
  br label %154

154:                                              ; preds = %153
  br label %155

155:                                              ; preds = %154
  br label %156

156:                                              ; preds = %155, %134, %130
  %157 = load i64, ptr %4, align 8, !tbaa !8
  %158 = load i64, ptr @H5P_CLS_FILE_ACCESS_ID_g, align 8, !tbaa !8
  %159 = call ptr @H5P_object_verify(i64 noundef %157, i64 noundef %158, i1 noundef zeroext true)
  store ptr %159, ptr %7, align 8, !tbaa !28
  %160 = icmp eq ptr null, %159
  br i1 %160, label %161, label %180

161:                                              ; preds = %156
  br label %162

162:                                              ; preds = %161
  br label %163

163:                                              ; preds = %162
  br label %164

164:                                              ; preds = %163
  %165 = load i64, ptr @H5E_ID_g, align 8, !tbaa !8
  %166 = load i64, ptr @H5E_BADID_g, align 8, !tbaa !8
  %167 = call i32 (ptr, ptr, i32, i64, i64, ptr, ...) @H5E_printf_stack(ptr noundef @.str.2, ptr noundef @__func__.H5Pget_driver_config_str, i32 noundef 1618, i64 noundef %165, i64 noundef %166, ptr noundef @.str.19)
  br label %168

168:                                              ; preds = %164
  br label %169

169:                                              ; preds = %168
  store i8 1, ptr %12, align 1, !tbaa !22
  %170 = load i8, ptr %12, align 1, !tbaa !22, !range !24, !noundef !25
  %171 = trunc i8 %170 to i1
  %172 = zext i1 %171 to i8
  store i8 %172, ptr %12, align 1, !tbaa !22
  br label %173

173:                                              ; preds = %169
  br label %174

174:                                              ; preds = %173
  br label %175

175:                                              ; preds = %174
  store i64 -1, ptr %9, align 8, !tbaa !8
  br label %207

176:                                              ; No predecessors!
  br label %177

177:                                              ; preds = %176
  br label %178

178:                                              ; preds = %177
  br label %179

179:                                              ; preds = %178
  br label %180

180:                                              ; preds = %179, %156
  %181 = load ptr, ptr %7, align 8, !tbaa !28
  %182 = call ptr @H5P_peek_driver_config_str(ptr noundef %181)
  store ptr %182, ptr %8, align 8, !tbaa !26
  %183 = icmp ne ptr %182, null
  br i1 %183, label %184, label %205

184:                                              ; preds = %180
  call void @llvm.lifetime.start.p0(i64 8, ptr %13) #10
  %185 = load ptr, ptr %8, align 8, !tbaa !26
  %186 = call i64 @strlen(ptr noundef %185) #11
  store i64 %186, ptr %13, align 8, !tbaa !8
  %187 = load ptr, ptr %5, align 8, !tbaa !26
  %188 = icmp ne ptr %187, null
  br i1 %188, label %189, label %203

189:                                              ; preds = %184
  %190 = load ptr, ptr %5, align 8, !tbaa !26
  %191 = load ptr, ptr %8, align 8, !tbaa !26
  %192 = load i64, ptr %6, align 8, !tbaa !8
  %193 = call ptr @strncpy(ptr noundef %190, ptr noundef %191, i64 noundef %192) #10
  %194 = load i64, ptr %13, align 8, !tbaa !8
  %195 = load i64, ptr %6, align 8, !tbaa !8
  %196 = icmp uge i64 %194, %195
  br i1 %196, label %197, label %202

197:                                              ; preds = %189
  %198 = load ptr, ptr %5, align 8, !tbaa !26
  %199 = load i64, ptr %6, align 8, !tbaa !8
  %200 = sub i64 %199, 1
  %201 = getelementptr inbounds nuw i8, ptr %198, i64 %200
  store i8 0, ptr %201, align 1, !tbaa !27
  br label %202

202:                                              ; preds = %197, %189
  br label %203

203:                                              ; preds = %202, %184
  %204 = load i64, ptr %13, align 8, !tbaa !8
  store i64 %204, ptr %9, align 8, !tbaa !8
  call void @llvm.lifetime.end.p0(i64 8, ptr %13) #10
  br label %206

205:                                              ; preds = %180
  store i64 0, ptr %9, align 8, !tbaa !8
  br label %206

206:                                              ; preds = %205, %203
  br label %207

207:                                              ; preds = %206, %175, %151, %122, %90, %52
  %208 = load i8, ptr %11, align 1, !tbaa !22, !range !24, !noundef !25
  %209 = trunc i8 %208 to i1
  %210 = xor i1 %209, true
  %211 = xor i1 %210, true
  %212 = zext i1 %211 to i32
  %213 = sext i32 %212 to i64
  %214 = call i64 @llvm.expect.i64(i64 %213, i64 1)
  %215 = icmp ne i64 %214, 0
  br i1 %215, label %216, label %218

216:                                              ; preds = %207
  %217 = call i32 @H5CX_pop(i1 noundef zeroext true)
  store i8 0, ptr %11, align 1, !tbaa !22
  br label %218

218:                                              ; preds = %216, %207
  %219 = load i8, ptr %12, align 1, !tbaa !22, !range !24, !noundef !25
  %220 = trunc i8 %219 to i1
  %221 = xor i1 %220, true
  %222 = xor i1 %221, true
  %223 = zext i1 %222 to i32
  %224 = sext i32 %223 to i64
  %225 = call i64 @llvm.expect.i64(i64 %224, i64 0)
  %226 = icmp ne i64 %225, 0
  br i1 %226, label %227, label %229

227:                                              ; preds = %218
  %228 = call i32 @H5E_dump_api_stack()
  br label %229

229:                                              ; preds = %227, %218
  %230 = load i64, ptr %9, align 8, !tbaa !8
  call void @llvm.lifetime.end.p0(i64 1, ptr %12) #10
  call void @llvm.lifetime.end.p0(i64 1, ptr %11) #10
  call void @llvm.lifetime.end.p0(i64 480, ptr %10) #10
  call void @llvm.lifetime.end.p0(i64 8, ptr %9) #10
  call void @llvm.lifetime.end.p0(i64 8, ptr %8) #10
  call void @llvm.lifetime.end.p0(i64 8, ptr %7) #10
  ret i64 %230
}