; Function Attrs: nounwind uwtable
define i64 @H5Pget_driver_config_str(i64 noundef %0, ptr noundef %1, i64 noundef %2) local_unnamed_addr #0 {
  %4 = alloca %struct.H5CX_node_t, align 8
  call void @llvm.lifetime.start.p0(i64 480, ptr nonnull %4) #15
  call void @llvm.memset.p0.i64(ptr noundef nonnull align 8 dereferenceable(480) %4, i8 0, i64 480, i1 false)
  %5 = load i8, ptr @H5_libinit_g, align 1, !tbaa !16, !range !18, !noundef !19
  %6 = trunc nuw i8 %5 to i1
  %7 = load i8, ptr @H5_libterm_g, align 1, !range !18
  %8 = trunc nuw i8 %7 to i1
  %9 = select i1 %6, i1 true, i1 %8
  br i1 %9, label %17, label %10, !prof !20

10:                                               ; preds = %3
  %11 = tail call i32 @H5_init_library() #15
  %12 = icmp slt i32 %11, 0
  br i1 %12, label %13, label %._crit_edge, !prof !28

._crit_edge:                                      ; preds = %10
  %.pre = load i8, ptr @H5_libterm_g, align 1, !range !18
  br label %17

13:                                               ; preds = %10
  %14 = load i64, ptr @H5E_FUNC_g, align 8, !tbaa !3
  %15 = load i64, ptr @H5E_CANTINIT_g, align 8, !tbaa !3
  %16 = tail call i32 (ptr, ptr, i32, i64, i64, ptr, ...) @H5E_printf_stack(ptr noundef nonnull @.str.2, ptr noundef nonnull @__func__.H5Pget_driver_config_str, i32 noundef 1610, i64 noundef %14, i64 noundef %15, ptr noundef nonnull @.str.15) #15
  br label %.thread38

17:                                               ; preds = %._crit_edge, %3
  %18 = phi i8 [ %.pre, %._crit_edge ], [ %7, %3 ]
  %19 = load i8, ptr @H5P_init_g, align 1, !tbaa !16, !range !18, !noundef !19
  %20 = trunc nuw i8 %19 to i1
  %21 = trunc nuw i8 %18 to i1
  %22 = select i1 %20, i1 true, i1 %21
  br i1 %22, label %30, label %23, !prof !20

23:                                               ; preds = %17
  store i8 1, ptr @H5P_init_g, align 1, !tbaa !16
  %24 = tail call i32 @H5P__init_package() #15
  %25 = icmp slt i32 %24, 0
  br i1 %25, label %26, label %30, !prof !29

26:                                               ; preds = %23
  store i8 0, ptr @H5P_init_g, align 1, !tbaa !16
  %27 = load i64, ptr @H5E_FUNC_g, align 8, !tbaa !3
  %28 = load i64, ptr @H5E_CANTINIT_g, align 8, !tbaa !3
  %29 = tail call i32 (ptr, ptr, i32, i64, i64, ptr, ...) @H5E_printf_stack(ptr noundef nonnull @.str.2, ptr noundef nonnull @__func__.H5Pget_driver_config_str, i32 noundef 1610, i64 noundef %27, i64 noundef %28, ptr noundef nonnull @.str.16) #15
  br label %.thread38

30:                                               ; preds = %17, %23
  %31 = call i32 @H5CX_push(ptr noundef nonnull %4) #15
  %32 = icmp slt i32 %31, 0
  br i1 %32, label %33, label %37, !prof !28

33:                                               ; preds = %30
  %34 = load i64, ptr @H5E_FUNC_g, align 8, !tbaa !3
  %35 = load i64, ptr @H5E_CANTSET_g, align 8, !tbaa !3
  %36 = call i32 (ptr, ptr, i32, i64, i64, ptr, ...) @H5E_printf_stack(ptr noundef nonnull @.str.2, ptr noundef nonnull @__func__.H5Pget_driver_config_str, i32 noundef 1610, i64 noundef %34, i64 noundef %35, ptr noundef nonnull @.str.17) #15
  br label %.thread38

37:                                               ; preds = %30
  %38 = call i32 @H5E_clear_stack() #15
  %39 = icmp eq ptr %1, null
  %40 = icmp ne i64 %2, 0
  %or.cond = and i1 %39, %40
  br i1 %or.cond, label %41, label %45, !prof !30

41:                                               ; preds = %37
  %42 = load i64, ptr @H5E_ARGS_g, align 8, !tbaa !3
  %43 = load i64, ptr @H5E_BADVALUE_g, align 8, !tbaa !3
  %44 = call i32 (ptr, ptr, i32, i64, i64, ptr, ...) @H5E_printf_stack(ptr noundef nonnull @.str.2, ptr noundef nonnull @__func__.H5Pget_driver_config_str, i32 noundef 1614, i64 noundef %42, i64 noundef %43, ptr noundef nonnull @.str.40) #15
  br label %63

45:                                               ; preds = %37
  %46 = load i64, ptr @H5P_CLS_FILE_ACCESS_ID_g, align 8, !tbaa !3
  %47 = call ptr @H5P_object_verify(i64 noundef %0, i64 noundef %46, i1 noundef zeroext true) #15
  %48 = icmp eq ptr %47, null
  br i1 %48, label %49, label %53, !prof !30

49:                                               ; preds = %45
  %50 = load i64, ptr @H5E_ID_g, align 8, !tbaa !3
  %51 = load i64, ptr @H5E_BADID_g, align 8, !tbaa !3
  %52 = call i32 (ptr, ptr, i32, i64, i64, ptr, ...) @H5E_printf_stack(ptr noundef nonnull @.str.2, ptr noundef nonnull @__func__.H5Pget_driver_config_str, i32 noundef 1618, i64 noundef %50, i64 noundef %51, ptr noundef nonnull @.str.19) #15
  br label %63

53:                                               ; preds = %45
  %54 = call ptr @H5P_peek_driver_config_str(ptr noundef nonnull %47)
  %.not = icmp eq ptr %54, null
  br i1 %.not, label %.thread44, label %55

55:                                               ; preds = %53
  %56 = call i64 @strlen(ptr noundef nonnull dereferenceable(1) %54) #16
  br i1 %39, label %.thread44, label %57

57:                                               ; preds = %55
  %58 = call ptr @strncpy(ptr noundef nonnull %1, ptr noundef nonnull %54, i64 noundef %2) #15
  %.not29 = icmp ult i64 %56, %2
  br i1 %.not29, label %.thread44, label %59

59:                                               ; preds = %57
  %60 = getelementptr i8, ptr %1, i64 %2
  %61 = getelementptr i8, ptr %60, i64 -1
  store i8 0, ptr %61, align 1, !tbaa !21
  br label %.thread44

.thread44:                                        ; preds = %53, %55, %59, %57
  %.023.ph.ph = phi i64 [ %56, %57 ], [ %56, %59 ], [ %56, %55 ], [ 0, %53 ]
  %62 = call i32 @H5CX_pop(i1 noundef zeroext true) #15
  br label %66

63:                                               ; preds = %49, %41
  %64 = call i32 @H5CX_pop(i1 noundef zeroext true) #15
  br label %.thread38

.thread38:                                        ; preds = %33, %26, %13, %63
  %65 = call i32 @H5E_dump_api_stack() #15
  br label %66

66:                                               ; preds = %.thread44, %.thread38
  %.0233341 = phi i64 [ -1, %.thread38 ], [ %.023.ph.ph, %.thread44 ]
  call void @llvm.lifetime.end.p0(i64 480, ptr nonnull %4) #15
  ret i64 %.0233341
}